; Function Attrs: nofree norecurse nosync nounwind memory(argmem: read) uwtable
define i32 @Fra_ClassCount(ptr noundef readonly captures(none) %0) local_unnamed_addr #9 {
  br label %2

2:                                                ; preds = %2, %1
  %indvars.iv = phi i64 [ %indvars.iv.next, %2 ], [ 0, %1 ]
  %3 = getelementptr inbounds nuw ptr, ptr %0, i64 %indvars.iv
  %4 = load ptr, ptr %3, align 8, !tbaa !42
  %.not = icmp eq ptr %4, null
  %indvars.iv.next = add nuw nsw i64 %indvars.iv, 1
  br i1 %.not, label %5, label %2, !llvm.loop !47

5:                                                ; preds = %2
  %6 = trunc nuw nsw i64 %indvars.iv to i32
  ret i32 %6
}